target datalayout = "e-m:e-p270:32:32-p271:32:32-p272:64:64-i64:64-i128:128-f80:128-n8:16:32:64-S128"
target triple = "x86_64-pc-linux-gnu"

@.str.47 = private unnamed_addr constant [4 x i8] c"#%d\00", align 1
@.str.48 = private unnamed_addr constant [5 x i8] c"%s%s\00", align 1
@.str.49 = private unnamed_addr constant [12 x i8] c" recompiled\00", align 1
@.str.50 = private unnamed_addr constant [1 x i8] zeroinitializer, align 1
@.str.86 = private unnamed_addr constant [5 x i8] c"many\00", align 1
@_ZZN14Deoptimization16trap_reason_nameEiE3buf = internal global [20 x i8] zeroinitializer, align 16
@.str.87 = private unnamed_addr constant [9 x i8] c"reason%d\00", align 1

; Function Attrs: mustprogress nounwind uwtable
define hidden noundef ptr @_ZN14Deoptimization16trap_reason_nameEi(i32 noundef %0) #1 align 2 {
  %2 = alloca ptr, align 8
  %3 = alloca i32, align 4
  store i32 %0, ptr %3, align 4
  %4 = load i32, ptr %3, align 4
  %5 = icmp eq i32 %4, -1
  br i1 %5, label %6, label %7

6:                                                ; preds = %1
  store ptr @.str.86, ptr %2, align 8
  br label %18

7:                                                ; preds = %1
  %8 = load i32, ptr %3, align 4
  %9 = icmp ult i32 %8, 31
  br i1 %9, label %10, label %15

10:                                               ; preds = %7
  %11 = load i32, ptr %3, align 4
  %12 = sext i32 %11 to i64
  %13 = getelementptr inbounds [31 x ptr], ptr @_ZN14Deoptimization17_trap_reason_nameE, i64 0, i64 %12
  %14 = load ptr, ptr %13, align 8
  store ptr %14, ptr %2, align 8
  br label %18

15:                                               ; preds = %7
  %16 = load i32, ptr %3, align 4
  %17 = call noundef i32 (ptr, i64, ptr, ...) @_ZN2os16snprintf_checkedEPcmPKcz(ptr noundef @_ZZN14Deoptimization16trap_reason_nameEiE3buf, i64 noundef 20, ptr noundef @.str.87, i32 noundef %16)
  store ptr @_ZZN14Deoptimization16trap_reason_nameEiE3buf, ptr %2, align 8
  br label %18

18:                                               ; preds = %15, %10, %6
  %19 = load ptr, ptr %2, align 8
  ret ptr %19
}

; Function Attrs: mustprogress nounwind uwtable
define hidden noundef i32 @_ZN14Deoptimization25trap_state_set_recompiledEib(i32 noundef %0, i1 noundef zeroext %1) #1 align 2 {
  %3 = alloca i32, align 4
  %4 = alloca i32, align 4
  %5 = alloca i8, align 1
  store i32 %0, ptr %4, align 4
  %6 = zext i1 %1 to i8
  store i8 %6, ptr %5, align 1
  %7 = load i8, ptr %5, align 1
  %8 = trunc i8 %7 to i1
  br i1 %8, label %9, label %12

9:                                                ; preds = %2
  %10 = load i32, ptr %4, align 4
  %11 = or i32 %10, -2147483648
  store i32 %11, ptr %3, align 4
  br label %15

12:                                               ; preds = %2
  %13 = load i32, ptr %4, align 4
  %14 = and i32 %13, 2147483647
  store i32 %14, ptr %3, align 4
  br label %15

15:                                               ; preds = %12, %9
  %16 = load i32, ptr %3, align 4
  ret i32 %16
}

; Function Attrs: mustprogress nounwind uwtable
define hidden noundef i32 @_ZN14Deoptimization21trap_state_add_reasonEii(i32 noundef %0, i32 noundef %1) #1 align 2 {
  %3 = alloca i32, align 4
  %4 = alloca i32, align 4
  %5 = alloca i32, align 4
  %6 = alloca i32, align 4
  store i32 %0, ptr %4, align 4
  store i32 %1, ptr %5, align 4
  %7 = load i32, ptr %4, align 4
  %8 = and i32 %7, -2147483648
  store i32 %8, ptr %6, align 4
  %9 = load i32, ptr %6, align 4
  %10 = load i32, ptr %4, align 4
  %11 = sub nsw i32 %10, %9
  store i32 %11, ptr %4, align 4
  %12 = load i32, ptr %4, align 4
  %13 = icmp eq i32 %12, 2147483647
  br i1 %13, label %14, label %18

14:                                               ; preds = %2
  %15 = load i32, ptr %4, align 4
  %16 = load i32, ptr %6, align 4
  %17 = add nsw i32 %15, %16
  store i32 %17, ptr %3, align 4
  br label %36

18:                                               ; preds = %2
  %19 = load i32, ptr %4, align 4
  %20 = load i32, ptr %5, align 4
  %21 = icmp eq i32 %19, %20
  br i1 %21, label %22, label %26

22:                                               ; preds = %18
  %23 = load i32, ptr %4, align 4
  %24 = load i32, ptr %6, align 4
  %25 = add nsw i32 %23, %24
  store i32 %25, ptr %3, align 4
  br label %36

26:                                               ; preds = %18
  %27 = load i32, ptr %4, align 4
  %28 = icmp eq i32 %27, 0
  br i1 %28, label %29, label %33

29:                                               ; preds = %26
  %30 = load i32, ptr %5, align 4
  %31 = load i32, ptr %6, align 4
  %32 = add nsw i32 %30, %31
  store i32 %32, ptr %3, align 4
  br label %36

33:                                               ; preds = %26
  %34 = load i32, ptr %6, align 4
  %35 = add nsw i32 2147483647, %34
  store i32 %35, ptr %3, align 4
  br label %36

36:                                               ; preds = %33, %29, %22, %14
  %37 = load i32, ptr %3, align 4
  ret i32 %37
}

; Function Attrs: mustprogress nounwind uwtable
define linkonce_odr hidden noundef zeroext i1 @_ZN14Deoptimization31reason_is_recorded_per_bytecodeENS_11DeoptReasonE(i32 noundef %0) #1 comdat align 2 {
  %2 = alloca i32, align 4
  store i32 %0, ptr %2, align 4
  %3 = load i32, ptr %2, align 4
  %4 = icmp sgt i32 %3, 0
  br i1 %4, label %5, label %8

5:                                                ; preds = %1
  %6 = load i32, ptr %2, align 4
  %7 = icmp sle i32 %6, 8
  br label %8

8:                                                ; preds = %5, %1
  %9 = phi i1 [ false, %1 ], [ %7, %5 ]
  ret i1 %9
}

; Function Attrs: mustprogress nounwind uwtable
define hidden noundef zeroext i1 @_ZN14Deoptimization24trap_state_is_recompiledEi(i32 noundef %0) #1 align 2 {
  %2 = alloca i32, align 4
  store i32 %0, ptr %2, align 4
  %3 = load i32, ptr %2, align 4
  %4 = and i32 %3, -2147483648
  %5 = icmp ne i32 %4, 0
  ret i1 %5
}

; Function Attrs: mustprogress nounwind uwtable
define hidden noundef i32 @_ZN14Deoptimization17trap_state_reasonEi(i32 noundef %0) #1 align 2 {
  %2 = alloca i32, align 4
  %3 = alloca i32, align 4
  %4 = alloca i32, align 4
  store i32 %0, ptr %3, align 4
  %5 = load i32, ptr %3, align 4
  %6 = and i32 %5, -2147483648
  store i32 %6, ptr %4, align 4
  %7 = load i32, ptr %4, align 4
  %8 = load i32, ptr %3, align 4
  %9 = sub nsw i32 %8, %7
  store i32 %9, ptr %3, align 4
  %10 = load i32, ptr %3, align 4
  %11 = icmp eq i32 %10, 2147483647
  br i1 %11, label %12, label %13

12:                                               ; preds = %1
  store i32 -1, ptr %2, align 4
  br label %15

13:                                               ; preds = %1
  %14 = load i32, ptr %3, align 4
  store i32 %14, ptr %2, align 4
  br label %15

15:                                               ; preds = %13, %12
  %16 = load i32, ptr %2, align 4
  ret i32 %16
}

; Function Attrs: mustprogress nounwind uwtable
define hidden noundef ptr @_ZN14Deoptimization17format_trap_stateEPcmi(ptr noundef %0, i64 noundef %1, i32 noundef %2) #1 align 2 {
  %4 = alloca ptr, align 8
  %5 = alloca i64, align 8
  %6 = alloca i32, align 4
  %7 = alloca i32, align 4
  %8 = alloca i8, align 1
  %9 = alloca i32, align 4
  %10 = alloca i64, align 8
  store ptr %0, ptr %4, align 8
  store i64 %1, ptr %5, align 8
  store i32 %2, ptr %6, align 4
  %11 = load i32, ptr %6, align 4
  %12 = call noundef i32 @_ZN14Deoptimization17trap_state_reasonEi(i32 noundef %11)
  store i32 %12, ptr %7, align 4
  %13 = load i32, ptr %6, align 4
  %14 = call noundef zeroext i1 @_ZN14Deoptimization24trap_state_is_recompiledEi(i32 noundef %13)
  %15 = zext i1 %14 to i8
  store i8 %15, ptr %8, align 1
  store i32 0, ptr %9, align 4
  %16 = load i32, ptr %7, align 4
  %17 = call noundef zeroext i1 @_ZN14Deoptimization31reason_is_recorded_per_bytecodeENS_11DeoptReasonE(i32 noundef %16)
  br i1 %17, label %21, label %18

18:                                               ; preds = %3
  %19 = load i32, ptr %7, align 4
  %20 = icmp eq i32 %19, -1
  br i1 %20, label %21, label %25

21:                                               ; preds = %18, %3
  %22 = load i32, ptr %9, align 4
  %23 = load i32, ptr %7, align 4
  %24 = call noundef i32 @_ZN14Deoptimization21trap_state_add_reasonEii(i32 noundef %22, i32 noundef %23)
  store i32 %24, ptr %9, align 4
  br label %25

25:                                               ; preds = %21, %18
  %26 = load i8, ptr %8, align 1
  %27 = trunc i8 %26 to i1
  br i1 %27, label %28, label %33

28:                                               ; preds = %25
  %29 = load i32, ptr %9, align 4
  %30 = load i8, ptr %8, align 1
  %31 = trunc i8 %30 to i1
  %32 = call noundef i32 @_ZN14Deoptimization25trap_state_set_recompiledEib(i32 noundef %29, i1 noundef zeroext %31)
  store i32 %32, ptr %9, align 4
  br label %33

33:                                               ; preds = %28, %25
  %34 = load i32, ptr %9, align 4
  %35 = load i32, ptr %6, align 4
  %36 = icmp ne i32 %34, %35
  br i1 %36, label %37, label %43

37:                                               ; preds = %33
  %38 = load ptr, ptr %4, align 8
  %39 = load i64, ptr %5, align 8
  %40 = load i32, ptr %6, align 4
  %41 = call i32 (ptr, i64, ptr, ...) @jio_snprintf(ptr noundef %38, i64 noundef %39, ptr noundef @.str.47, i32 noundef %40)
  %42 = sext i32 %41 to i64
  store i64 %42, ptr %10, align 8
  br label %53

43:                                               ; preds = %33
  %44 = load ptr, ptr %4, align 8
  %45 = load i64, ptr %5, align 8
  %46 = load i32, ptr %7, align 4
  %47 = call noundef ptr @_ZN14Deoptimization16trap_reason_nameEi(i32 noundef %46)
  %48 = load i8, ptr %8, align 1
  %49 = trunc i8 %48 to i1
  %50 = select i1 %49, ptr @.str.49, ptr @.str.50
  %51 = call i32 (ptr, i64, ptr, ...) @jio_snprintf(ptr noundef %44, i64 noundef %45, ptr noundef @.str.48, ptr noundef %47, ptr noundef %50)
  %52 = sext i32 %51 to i64
  store i64 %52, ptr %10, align 8
  br label %53

53:                                               ; preds = %43, %37
  %54 = load ptr, ptr %4, align 8
  ret ptr %54
}