; Function Attrs: mustprogress nounwind uwtable
define hidden noundef ptr @_ZN14Deoptimization17format_trap_stateEPcmi(ptr noundef returned %0, i64 noundef %1, i32 noundef %2) local_unnamed_addr #0 align 2 {
_ZN14Deoptimization21trap_state_add_reasonEii.exit:
  %3 = and i32 %2, 2147483647
  %.not27 = icmp eq i32 %3, 2147483647
  %4 = icmp slt i32 %2, 0
  %5 = add nsw i32 %3, -9
  %6 = icmp ult i32 %5, -8
  %..i = select i1 %6, i32 0, i32 %3
  %.0 = select i1 %.not27, i32 -1, i32 %..i
  %7 = and i32 %2, -2147483648
  %.1 = or i32 %.0, %7
  %.not = icmp eq i32 %.1, %2
  br i1 %.not, label %10, label %8

8:                                                ; preds = %_ZN14Deoptimization21trap_state_add_reasonEii.exit
  %9 = tail call i32 (ptr, i64, ptr, ...) @jio_snprintf(ptr noundef %0, i64 noundef %1, ptr noundef nonnull @.str.47, i32 noundef %2) #22
  br label %21

10:                                               ; preds = %_ZN14Deoptimization21trap_state_add_reasonEii.exit
  br i1 %.not27, label %_ZN14Deoptimization16trap_reason_nameEi.exit, label %11

11:                                               ; preds = %10
  %12 = icmp ult i32 %3, 31
  br i1 %12, label %13, label %17

13:                                               ; preds = %11
  %14 = zext nneg i32 %3 to i64
  %15 = getelementptr inbounds [31 x ptr], ptr @_ZN14Deoptimization17_trap_reason_nameE, i64 0, i64 %14
  %16 = load ptr, ptr %15, align 8
  br label %_ZN14Deoptimization16trap_reason_nameEi.exit

17:                                               ; preds = %11
  %18 = tail call noundef i32 (ptr, i64, ptr, ...) @_ZN2os16snprintf_checkedEPcmPKcz(ptr noundef nonnull @_ZZN14Deoptimization16trap_reason_nameEiE3buf, i64 noundef 20, ptr noundef nonnull @.str.87, i32 noundef %3) #22
  br label %_ZN14Deoptimization16trap_reason_nameEi.exit

_ZN14Deoptimization16trap_reason_nameEi.exit:     ; preds = %10, %13, %17
  %.0.i22 = phi ptr [ %16, %13 ], [ @_ZZN14Deoptimization16trap_reason_nameEiE3buf, %17 ], [ @.str.86, %10 ]
  %19 = select i1 %4, ptr @.str.49, ptr @.str.50
  %20 = tail call i32 (ptr, i64, ptr, ...) @jio_snprintf(ptr noundef %0, i64 noundef %1, ptr noundef nonnull @.str.48, ptr noundef %.0.i22, ptr noundef nonnull %19) #22
  br label %21

21:                                               ; preds = %_ZN14Deoptimization16trap_reason_nameEi.exit, %8
  ret ptr %0
}